; Function Attrs: nounwind uwtable
define zeroext range(i8 0, 2) i8 @l_Std_Time_TimeZone_Transition_findTransitionIndexForTimestamp___lambda__1(ptr noundef %0, ptr noundef readonly captures(none) %1) local_unnamed_addr #1 {
  %3 = getelementptr inbounds nuw i8, ptr %1, i64 8
  %4 = load ptr, ptr %3, align 8, !tbaa !10
  %5 = ptrtoint ptr %0 to i64
  %6 = and i64 %5, 1
  %.not.i.i = icmp eq i64 %6, 0
  br i1 %.not.i.i, label %.critedge.i.i, label %7, !prof !15

7:                                                ; preds = %2
  %8 = ptrtoint ptr %4 to i64
  %9 = and i64 %8, 1
  %.not7.i.i = icmp eq i64 %9, 0
  br i1 %.not7.i.i, label %.critedge.i.i, label %10, !prof !15

10:                                               ; preds = %7
  %11 = lshr i64 %5, 1
  %12 = trunc i64 %11 to i32
  %13 = lshr i64 %8, 1
  %14 = trunc i64 %13 to i32
  %15 = icmp slt i32 %12, %14
  br label %lean_int_dec_lt.exit

.critedge.i.i:                                    ; preds = %7, %2
  %16 = tail call zeroext i1 @lean_int_big_lt(ptr noundef %0, ptr noundef %4) #6
  br label %lean_int_dec_lt.exit

lean_int_dec_lt.exit:                             ; preds = %10, %.critedge.i.i
  %.0.i.i = phi i1 [ %15, %10 ], [ %16, %.critedge.i.i ]
  %17 = zext i1 %.0.i.i to i8
  ret i8 %17
}